target datalayout = "e-m:e-p270:32:32-p271:32:32-p272:64:64-i64:64-i128:128-f80:128-n8:16:32:64-S128"
target triple = "x86_64-unknown-linux-gnu"

%union.pthread_mutex_t = type { %struct.__pthread_mutex_s }
%struct.__pthread_mutex_s = type { i32, i32, i32, i32, i32, i16, i16, %struct.__pthread_internal_list }
%struct.__pthread_internal_list = type { ptr, ptr }

@mmap_mutex = internal global %union.pthread_mutex_t zeroinitializer, align 8

; Function Attrs: nounwind sspstrong uwtable
define dso_local void @mmap_fork_end(i32 noundef %child) #0 {
entry:
  %child.addr = alloca i32, align 4
  store i32 %child, ptr %child.addr, align 4
  %0 = load i32, ptr %child.addr, align 4
  %tobool = icmp ne i32 %0, 0
  br i1 %tobool, label %if.then, label %if.else

if.then:                                          ; preds = %entry
  %call = call i32 @pthread_mutex_init(ptr noundef @mmap_mutex, ptr noundef null) #8
  br label %if.end

if.else:                                          ; preds = %entry
  %call1 = call i32 @pthread_mutex_unlock(ptr noundef @mmap_mutex) #8
  br label %if.end

if.end:                                           ; preds = %if.else, %if.then
  ret void
}