; Function Attrs: nounwind sspstrong uwtable
define dso_local void @mmap_fork_end(i32 noundef %child) local_unnamed_addr #0 {
entry:
  %tobool.not = icmp eq i32 %child, 0
  br i1 %tobool.not, label %if.else, label %if.then

if.then:                                          ; preds = %entry
  %call = tail call i32 @pthread_mutex_init(ptr noundef nonnull @mmap_mutex, ptr noundef null) #14
  br label %if.end

if.else:                                          ; preds = %entry
  %call1 = tail call i32 @pthread_mutex_unlock(ptr noundef nonnull @mmap_mutex) #14
  br label %if.end

if.end:                                           ; preds = %if.else, %if.then
  ret void
}